target datalayout = "e-m:e-p270:32:32-p271:32:32-p272:64:64-i64:64-i128:128-f80:128-n8:16:32:64-S128"
target triple = "x86_64-pc-linux-gnu"

%"struct.OpenImageIO::v3_1_0::TypeDesc" = type { i8, i8, i8, i8, i32 }
%"class.OpenImageIO::v3_1_0::ImageSpec" = type { i32, i32, i32, i32, i32, i32, i32, i32, i32, i32, i32, i32, i32, i32, i32, i32, %"struct.OpenImageIO::v3_1_0::TypeDesc", %"class.std::vector", %"class.std::vector.0", i32, i32, i8, %"class.OpenImageIO::v3_1_0::ParamValueList" }
%"class.std::vector" = type { %"struct.std::_Vector_base" }
%"struct.std::_Vector_base" = type { %"struct.std::_Vector_base<OpenImageIO::v3_1_0::TypeDesc, std::allocator<OpenImageIO::v3_1_0::TypeDesc>>::_Vector_impl" }
%"struct.std::_Vector_base<OpenImageIO::v3_1_0::TypeDesc, std::allocator<OpenImageIO::v3_1_0::TypeDesc>>::_Vector_impl" = type { %"struct.std::_Vector_base<OpenImageIO::v3_1_0::TypeDesc, std::allocator<OpenImageIO::v3_1_0::TypeDesc>>::_Vector_impl_data" }
%"struct.std::_Vector_base<OpenImageIO::v3_1_0::TypeDesc, std::allocator<OpenImageIO::v3_1_0::TypeDesc>>::_Vector_impl_data" = type { ptr, ptr, ptr }
%"class.std::vector.0" = type { %"struct.std::_Vector_base.1" }
%"struct.std::_Vector_base.1" = type { %"struct.std::_Vector_base<std::__cxx11::basic_string<char>, std::allocator<std::__cxx11::basic_string<char>>>::_Vector_impl" }
%"struct.std::_Vector_base<std::__cxx11::basic_string<char>, std::allocator<std::__cxx11::basic_string<char>>>::_Vector_impl" = type { %"struct.std::_Vector_base<std::__cxx11::basic_string<char>, std::allocator<std::__cxx11::basic_string<char>>>::_Vector_impl_data" }
%"struct.std::_Vector_base<std::__cxx11::basic_string<char>, std::allocator<std::__cxx11::basic_string<char>>>::_Vector_impl_data" = type { ptr, ptr, ptr }
%"class.OpenImageIO::v3_1_0::ParamValueList" = type { %"class.std::vector.5" }
%"class.std::vector.5" = type { %"struct.std::_Vector_base.6" }
%"struct.std::_Vector_base.6" = type { %"struct.std::_Vector_base<OpenImageIO::v3_1_0::ParamValue, std::allocator<OpenImageIO::v3_1_0::ParamValue>>::_Vector_impl" }
%"struct.std::_Vector_base<OpenImageIO::v3_1_0::ParamValue, std::allocator<OpenImageIO::v3_1_0::ParamValue>>::_Vector_impl" = type { %"struct.std::_Vector_base<OpenImageIO::v3_1_0::ParamValue, std::allocator<OpenImageIO::v3_1_0::ParamValue>>::_Vector_impl_data" }
%"struct.std::_Vector_base<OpenImageIO::v3_1_0::ParamValue, std::allocator<OpenImageIO::v3_1_0::ParamValue>>::_Vector_impl_data" = type { ptr, ptr, ptr }
%"class.std::__cxx11::basic_string" = type { %"struct.std::__cxx11::basic_string<char>::_Alloc_hider", i64, %union.anon.15 }
%"struct.std::__cxx11::basic_string<char>::_Alloc_hider" = type { ptr }
%union.anon.15 = type { i64, [8 x i8] }
%"class.OpenImageIO::v3_1_0::ZfileOutput" = type { %"class.OpenImageIO::v3_1_0::ImageOutput", %"class.std::__cxx11::basic_string", ptr, ptr, %"class.std::vector.24", %"class.std::vector.24" }
%"class.OpenImageIO::v3_1_0::ImageOutput" = type { ptr, %"class.OpenImageIO::v3_1_0::ImageSpec", %"class.std::unique_ptr.16" }
%"class.std::unique_ptr.16" = type { %"struct.std::__uniq_ptr_data.17" }
%"struct.std::__uniq_ptr_data.17" = type { %"class.std::__uniq_ptr_impl.18" }
%"class.std::__uniq_ptr_impl.18" = type { %"class.std::tuple.19" }
%"class.std::tuple.19" = type { %"struct.std::_Tuple_impl.20" }
%"struct.std::_Tuple_impl.20" = type { %"struct.std::_Tuple_impl.21", %"struct.std::_Head_base.23" }
%"struct.std::_Tuple_impl.21" = type { %"struct.std::_Head_base.22" }
%"struct.std::_Head_base.22" = type { ptr }
%"struct.std::_Head_base.23" = type { ptr }
%"class.std::vector.24" = type { %"struct.std::_Vector_base.25" }
%"struct.std::_Vector_base.25" = type { %"struct.std::_Vector_base<unsigned char, std::allocator<unsigned char>>::_Vector_impl" }
%"struct.std::_Vector_base<unsigned char, std::allocator<unsigned char>>::_Vector_impl" = type { %"struct.std::_Vector_base<unsigned char, std::allocator<unsigned char>>::_Vector_impl_data" }
%"struct.std::_Vector_base<unsigned char, std::allocator<unsigned char>>::_Vector_impl_data" = type { ptr, ptr, ptr }

@.str.10 = private unnamed_addr constant [35 x i8] c"Failed write zfile::open (err: {})\00", align 1
@.str.11 = private unnamed_addr constant [14 x i8] c"File not open\00", align 1

; Function Attrs: inlinehint mustprogress nounwind uwtable
define linkonce_odr void @_ZSt19__iterator_categoryIPhENSt15iterator_traitsIT_E17iterator_categoryERKS2_(ptr noundef nonnull align 8 dereferenceable(8) %0) #0 comdat {
  %2 = alloca ptr, align 8
  store ptr %0, ptr %2, align 8, !tbaa !254
  ret void
}

; Function Attrs: mustprogress nounwind uwtable
define linkonce_odr noundef i64 @_ZNK11OpenImageIO6v3_1_08TypeDesc11elementsizeEv(ptr noundef nonnull align 4 dereferenceable(8) %0) #6 comdat align 2 {
  %2 = alloca ptr, align 8
  store ptr %0, ptr %2, align 8, !tbaa !84
  %3 = load ptr, ptr %2, align 8
  %4 = getelementptr inbounds nuw %"struct.OpenImageIO::v3_1_0::TypeDesc", ptr %3, i32 0, i32 1
  %5 = load i8, ptr %4, align 1, !tbaa !92
  %6 = zext i8 %5 to i64
  %7 = call noundef i64 @_ZNK11OpenImageIO6v3_1_08TypeDesc8basesizeEv(ptr noundef nonnull align 4 dereferenceable(8) %3) #5
  %8 = mul i64 %6, %7
  ret i64 %8
}

; Function Attrs: mustprogress uwtable
define linkonce_odr void @_ZNSt6vectorIhSaIhEE18_M_assign_dispatchIPhEEvT_S4_St12__false_type(ptr noundef nonnull align 8 dereferenceable(24) %0, ptr noundef %1, ptr noundef %2) #7 comdat align 2 {
  %4 = alloca ptr, align 8
  %5 = alloca ptr, align 8
  %6 = alloca ptr, align 8
  store ptr %0, ptr %4, align 8, !tbaa !161
  store ptr %1, ptr %5, align 8, !tbaa !27
  store ptr %2, ptr %6, align 8, !tbaa !27
  %7 = load ptr, ptr %4, align 8
  %8 = load ptr, ptr %5, align 8, !tbaa !27
  %9 = load ptr, ptr %6, align 8, !tbaa !27
  call void @_ZSt19__iterator_categoryIPhENSt15iterator_traitsIT_E17iterator_categoryERKS2_(ptr noundef nonnull align 8 dereferenceable(8) %5)
  call void @_ZNSt6vectorIhSaIhEE13_M_assign_auxIPhEEvT_S4_St20forward_iterator_tag(ptr noundef nonnull align 8 dereferenceable(24) %7, ptr noundef %8, ptr noundef %9)
  ret void
}

; Function Attrs: mustprogress nounwind uwtable
define linkonce_odr noundef i64 @_ZNK11OpenImageIO6v3_1_08TypeDesc4sizeEv(ptr noundef nonnull align 4 dereferenceable(8) %0) #6 comdat align 2 {
  %2 = alloca ptr, align 8
  %3 = alloca i64, align 8
  store ptr %0, ptr %2, align 8, !tbaa !84
  %4 = load ptr, ptr %2, align 8
  call void @llvm.lifetime.start.p0(i64 8, ptr %3) #5
  %5 = getelementptr inbounds nuw %"struct.OpenImageIO::v3_1_0::TypeDesc", ptr %4, i32 0, i32 4
  %6 = load i32, ptr %5, align 4, !tbaa !95
  %7 = icmp sgt i32 %6, 0
  br i1 %7, label %8, label %11

8:                                                ; preds = %1
  %9 = getelementptr inbounds nuw %"struct.OpenImageIO::v3_1_0::TypeDesc", ptr %4, i32 0, i32 4
  %10 = load i32, ptr %9, align 4, !tbaa !95
  br label %12

11:                                               ; preds = %1
  br label %12

12:                                               ; preds = %11, %8
  %13 = phi i32 [ %10, %8 ], [ 1, %11 ]
  %14 = sext i32 %13 to i64
  store i64 %14, ptr %3, align 8, !tbaa !100
  %15 = load i64, ptr %3, align 8, !tbaa !100
  %16 = call noundef i64 @_ZNK11OpenImageIO6v3_1_08TypeDesc11elementsizeEv(ptr noundef nonnull align 4 dereferenceable(8) %4) #5
  %17 = mul i64 %15, %16
  call void @llvm.lifetime.end.p0(i64 8, ptr %3) #5
  ret i64 %17
}

; Function Attrs: mustprogress nounwind uwtable
define linkonce_odr noundef nonnull align 1 dereferenceable(1) ptr @_ZNSt6vectorIhSaIhEEixEm(ptr noundef nonnull align 8 dereferenceable(24) %0, i64 noundef %1) #6 comdat align 2 {
  %3 = alloca ptr, align 8
  %4 = alloca i64, align 8
  store ptr %0, ptr %3, align 8, !tbaa !161
  store i64 %1, ptr %4, align 8, !tbaa !100
  %5 = load ptr, ptr %3, align 8
  %6 = getelementptr inbounds nuw %"struct.std::_Vector_base.25", ptr %5, i32 0, i32 0
  %7 = getelementptr inbounds nuw %"struct.std::_Vector_base<unsigned char, std::allocator<unsigned char>>::_Vector_impl_data", ptr %6, i32 0, i32 0
  %8 = load ptr, ptr %7, align 8, !tbaa !163
  %9 = load i64, ptr %4, align 8, !tbaa !100
  %10 = getelementptr inbounds nuw i8, ptr %8, i64 %9
  ret ptr %10
}

; Function Attrs: mustprogress uwtable
define linkonce_odr void @_ZNSt6vectorIhSaIhEE6assignIPhvEEvT_S4_(ptr noundef nonnull align 8 dereferenceable(24) %0, ptr noundef %1, ptr noundef %2) #7 comdat align 2 {
  %4 = alloca ptr, align 8
  %5 = alloca ptr, align 8
  %6 = alloca ptr, align 8
  store ptr %0, ptr %4, align 8, !tbaa !161
  store ptr %1, ptr %5, align 8, !tbaa !27
  store ptr %2, ptr %6, align 8, !tbaa !27
  %7 = load ptr, ptr %4, align 8
  %8 = load ptr, ptr %5, align 8, !tbaa !27
  %9 = load ptr, ptr %6, align 8, !tbaa !27
  call void @_ZNSt6vectorIhSaIhEE18_M_assign_dispatchIPhEEvT_S4_St12__false_type(ptr noundef nonnull align 8 dereferenceable(24) %7, ptr noundef %8, ptr noundef %9)
  ret void
}

; Function Attrs: mustprogress nounwind uwtable
define linkonce_odr void @_ZN11OpenImageIO6v3_1_09ImageSpec11auto_strideERlNS0_8TypeDescEi(ptr noundef nonnull align 8 dereferenceable(8) %0, i64 %1, i32 noundef %2) #6 comdat align 2 {
  %4 = alloca %"struct.OpenImageIO::v3_1_0::TypeDesc", align 4
  %5 = alloca ptr, align 8
  %6 = alloca i32, align 4
  store i64 %1, ptr %4, align 4
  store ptr %0, ptr %5, align 8, !tbaa !166
  store i32 %2, ptr %6, align 4, !tbaa !71
  %7 = load ptr, ptr %5, align 8, !tbaa !166
  %8 = load i64, ptr %7, align 8, !tbaa !100
  %9 = icmp eq i64 %8, -9223372036854775808
  br i1 %9, label %10, label %16

10:                                               ; preds = %3
  %11 = load i32, ptr %6, align 4, !tbaa !71
  %12 = sext i32 %11 to i64
  %13 = call noundef i64 @_ZNK11OpenImageIO6v3_1_08TypeDesc4sizeEv(ptr noundef nonnull align 4 dereferenceable(8) %4) #5
  %14 = mul i64 %12, %13
  %15 = load ptr, ptr %5, align 8, !tbaa !166
  store i64 %14, ptr %15, align 8, !tbaa !100
  br label %16

16:                                               ; preds = %10, %3
  ret void
}

; Function Attrs: mustprogress nounwind uwtable
define linkonce_odr noundef nonnull align 8 dereferenceable(160) ptr @_ZNK11OpenImageIO6v3_1_011ImageOutput4specEv(ptr noundef nonnull align 8 dereferenceable(184) %0) #6 comdat align 2 {
  %2 = alloca ptr, align 8
  store ptr %0, ptr %2, align 8, !tbaa !157
  %3 = load ptr, ptr %2, align 8
  %4 = getelementptr inbounds nuw %"class.OpenImageIO::v3_1_0::ImageOutput", ptr %3, i32 0, i32 1
  ret ptr %4
}

; Function Attrs: mustprogress nounwind uwtable
define linkonce_odr hidden noundef zeroext i1 @_ZNK11OpenImageIO6v3_1_011ZfileOutput6openedEv(ptr noundef nonnull align 8 dereferenceable(280) %0) #6 comdat align 2 {
  %2 = alloca ptr, align 8
  store ptr %0, ptr %2, align 8, !tbaa !12
  %3 = load ptr, ptr %2, align 8
  %4 = getelementptr inbounds nuw %"class.OpenImageIO::v3_1_0::ZfileOutput", ptr %3, i32 0, i32 2
  %5 = load ptr, ptr %4, align 8, !tbaa !137
  %6 = icmp ne ptr %5, null
  br i1 %6, label %11, label %7

7:                                                ; preds = %1
  %8 = getelementptr inbounds nuw %"class.OpenImageIO::v3_1_0::ZfileOutput", ptr %3, i32 0, i32 3
  %9 = load ptr, ptr %8, align 8, !tbaa !120
  %10 = icmp ne ptr %9, null
  br label %11

11:                                               ; preds = %7, %1
  %12 = phi i1 [ true, %1 ], [ %10, %7 ]
  ret i1 %12
}

; Function Attrs: mustprogress uwtable
define hidden noundef zeroext i1 @_ZN11OpenImageIO6v3_1_011ZfileOutput14write_scanlineEiiNS0_8TypeDescEPKvl(ptr noundef nonnull align 8 dereferenceable(280) %0, i32 noundef %1, i32 noundef %2, i64 %3, ptr noundef %4, i64 noundef %5) unnamed_addr #7 align 2 {
  %7 = alloca i1, align 1
  %8 = alloca %"struct.OpenImageIO::v3_1_0::TypeDesc", align 4
  %9 = alloca ptr, align 8
  %10 = alloca i32, align 4
  %11 = alloca i32, align 4
  %12 = alloca ptr, align 8
  %13 = alloca i64, align 8
  %14 = alloca %"struct.OpenImageIO::v3_1_0::TypeDesc", align 4
  %15 = alloca ptr, align 8
  %16 = alloca %"struct.OpenImageIO::v3_1_0::TypeDesc", align 4
  %17 = alloca i64, align 8
  %18 = alloca i32, align 4
  store i64 %3, ptr %8, align 4
  store ptr %0, ptr %9, align 8, !tbaa !12
  store i32 %1, ptr %10, align 4, !tbaa !71
  store i32 %2, ptr %11, align 4, !tbaa !71
  store ptr %4, ptr %12, align 8, !tbaa !111
  store i64 %5, ptr %13, align 8, !tbaa !100
  %19 = load ptr, ptr %9, align 8
  %20 = call noundef zeroext i1 @_ZNK11OpenImageIO6v3_1_011ZfileOutput6openedEv(ptr noundef nonnull align 8 dereferenceable(280) %19)
  br i1 %20, label %22, label %21

21:                                               ; preds = %6
  call void @_ZNK11OpenImageIO6v3_1_011ImageOutput8errorfmtIJEEEvPKcDpRKT_(ptr noundef nonnull align 8 dereferenceable(184) %19, ptr noundef @.str.11)
  store i1 false, ptr %7, align 1
  br label %87

22:                                               ; preds = %6
  %23 = getelementptr inbounds nuw %"class.OpenImageIO::v3_1_0::ImageOutput", ptr %19, i32 0, i32 1
  %24 = getelementptr inbounds nuw %"class.OpenImageIO::v3_1_0::ImageSpec", ptr %23, i32 0, i32 1
  %25 = load i32, ptr %24, align 4, !tbaa !143
  %26 = load i32, ptr %10, align 4, !tbaa !71
  %27 = sub nsw i32 %26, %25
  store i32 %27, ptr %10, align 4, !tbaa !71
  call void @llvm.memcpy.p0.p0.i64(ptr align 4 %14, ptr align 4 %8, i64 8, i1 false), !tbaa.struct !69
  %28 = call noundef nonnull align 8 dereferenceable(160) ptr @_ZNK11OpenImageIO6v3_1_011ImageOutput4specEv(ptr noundef nonnull align 8 dereferenceable(184) %19)
  %29 = getelementptr inbounds nuw %"class.OpenImageIO::v3_1_0::ImageSpec", ptr %28, i32 0, i32 15
  %30 = load i32, ptr %29, align 4, !tbaa !165
  %31 = load i64, ptr %14, align 4
  call void @_ZN11OpenImageIO6v3_1_09ImageSpec11auto_strideERlNS0_8TypeDescEi(ptr noundef nonnull align 8 dereferenceable(8) %13, i64 %31, i32 noundef %30) #5
  call void @llvm.lifetime.start.p0(i64 8, ptr %15) #5
  %32 = load ptr, ptr %12, align 8, !tbaa !111
  store ptr %32, ptr %15, align 8, !tbaa !111
  call void @llvm.memcpy.p0.p0.i64(ptr align 4 %16, ptr align 4 %8, i64 8, i1 false), !tbaa.struct !69
  %33 = load ptr, ptr %12, align 8, !tbaa !111
  %34 = load i64, ptr %13, align 8, !tbaa !100
  %35 = getelementptr inbounds nuw %"class.OpenImageIO::v3_1_0::ZfileOutput", ptr %19, i32 0, i32 4
  %36 = load i64, ptr %16, align 4
  %37 = call noundef ptr @_ZN11OpenImageIO6v3_1_011ImageOutput18to_native_scanlineENS0_8TypeDescEPKvlRSt6vectorIhSaIhEEjii(ptr noundef nonnull align 8 dereferenceable(184) %19, i64 %36, ptr noundef %33, i64 noundef %34, ptr noundef nonnull align 8 dereferenceable(24) %35, i32 noundef 0, i32 noundef 0, i32 noundef 0)
  store ptr %37, ptr %12, align 8, !tbaa !111
  %38 = load ptr, ptr %12, align 8, !tbaa !111
  %39 = load ptr, ptr %15, align 8, !tbaa !111
  %40 = icmp eq ptr %38, %39
  br i1 %40, label %41, label %50

41:                                               ; preds = %22
  %42 = getelementptr inbounds nuw %"class.OpenImageIO::v3_1_0::ZfileOutput", ptr %19, i32 0, i32 4
  %43 = load ptr, ptr %12, align 8, !tbaa !111
  %44 = load ptr, ptr %12, align 8, !tbaa !111
  %45 = getelementptr inbounds nuw %"class.OpenImageIO::v3_1_0::ImageOutput", ptr %19, i32 0, i32 1
  %46 = call noundef i64 @_ZNK11OpenImageIO6v3_1_09ImageSpec14scanline_bytesEb(ptr noundef nonnull align 8 dereferenceable(160) %45, i1 noundef zeroext false) #5
  %47 = getelementptr inbounds nuw i8, ptr %44, i64 %46
  call void @_ZNSt6vectorIhSaIhEE6assignIPhvEEvT_S4_(ptr noundef nonnull align 8 dereferenceable(24) %42, ptr noundef %43, ptr noundef %47)
  %48 = getelementptr inbounds nuw %"class.OpenImageIO::v3_1_0::ZfileOutput", ptr %19, i32 0, i32 4
  %49 = call noundef nonnull align 1 dereferenceable(1) ptr @_ZNSt6vectorIhSaIhEEixEm(ptr noundef nonnull align 8 dereferenceable(24) %48, i64 noundef 0) #5
  store ptr %49, ptr %12, align 8, !tbaa !111
  br label %50

50:                                               ; preds = %41, %22
  %51 = getelementptr inbounds nuw %"class.OpenImageIO::v3_1_0::ZfileOutput", ptr %19, i32 0, i32 3
  %52 = load ptr, ptr %51, align 8, !tbaa !120
  %53 = icmp ne ptr %52, null
  br i1 %53, label %54, label %65

54:                                               ; preds = %50
  %55 = getelementptr inbounds nuw %"class.OpenImageIO::v3_1_0::ZfileOutput", ptr %19, i32 0, i32 3
  %56 = load ptr, ptr %55, align 8, !tbaa !120
  %57 = load ptr, ptr %12, align 8, !tbaa !111
  %58 = getelementptr inbounds nuw %"class.OpenImageIO::v3_1_0::ImageOutput", ptr %19, i32 0, i32 1
  %59 = getelementptr inbounds nuw %"class.OpenImageIO::v3_1_0::ImageSpec", ptr %58, i32 0, i32 3
  %60 = load i32, ptr %59, align 4, !tbaa !138
  %61 = sext i32 %60 to i64
  %62 = mul i64 %61, 4
  %63 = trunc i64 %62 to i32
  %64 = call i32 @gzwrite(ptr noundef %56, ptr noundef %57, i32 noundef %63)
  br label %85

65:                                               ; preds = %50
  call void @llvm.lifetime.start.p0(i64 8, ptr %17) #5
  %66 = load ptr, ptr %12, align 8, !tbaa !111
  %67 = getelementptr inbounds nuw %"class.OpenImageIO::v3_1_0::ImageOutput", ptr %19, i32 0, i32 1
  %68 = getelementptr inbounds nuw %"class.OpenImageIO::v3_1_0::ImageSpec", ptr %67, i32 0, i32 3
  %69 = load i32, ptr %68, align 4, !tbaa !138
  %70 = sext i32 %69 to i64
  %71 = getelementptr inbounds nuw %"class.OpenImageIO::v3_1_0::ZfileOutput", ptr %19, i32 0, i32 2
  %72 = load ptr, ptr %71, align 8, !tbaa !137
  %73 = call i64 @fwrite(ptr noundef %66, i64 noundef 4, i64 noundef %70, ptr noundef %72)
  store i64 %73, ptr %17, align 8, !tbaa !100
  %74 = load i64, ptr %17, align 8, !tbaa !100
  %75 = getelementptr inbounds nuw %"class.OpenImageIO::v3_1_0::ImageOutput", ptr %19, i32 0, i32 1
  %76 = getelementptr inbounds nuw %"class.OpenImageIO::v3_1_0::ImageSpec", ptr %75, i32 0, i32 3
  %77 = load i32, ptr %76, align 4, !tbaa !138
  %78 = sext i32 %77 to i64
  %79 = icmp ne i64 %74, %78
  br i1 %79, label %80, label %81

80:                                               ; preds = %65
  call void @_ZNK11OpenImageIO6v3_1_011ImageOutput8errorfmtIJmEEEvPKcDpRKT_(ptr noundef nonnull align 8 dereferenceable(184) %19, ptr noundef @.str.10, ptr noundef nonnull align 8 dereferenceable(8) %17)
  store i1 false, ptr %7, align 1
  store i32 1, ptr %18, align 4
  br label %82

81:                                               ; preds = %65
  store i32 0, ptr %18, align 4
  br label %82

82:                                               ; preds = %81, %80
  call void @llvm.lifetime.end.p0(i64 8, ptr %17) #5
  %83 = load i32, ptr %18, align 4
  switch i32 %83, label %86 [
    i32 0, label %84
  ]

84:                                               ; preds = %82
  br label %85

85:                                               ; preds = %84, %54
  store i1 true, ptr %7, align 1
  store i32 1, ptr %18, align 4
  br label %86

86:                                               ; preds = %85, %82
  call void @llvm.lifetime.end.p0(i64 8, ptr %15) #5
  br label %87

87:                                               ; preds = %86, %21
  %88 = load i1, ptr %7, align 1
  ret i1 %88
}