; Function Attrs: mustprogress uwtable
define hidden noundef zeroext i1 @_ZN11OpenImageIO6v3_1_011ZfileOutput14write_scanlineEiiNS0_8TypeDescEPKvl(ptr noundef nonnull align 8 dereferenceable(280) %0, i32 %1, i32 %2, i64 %3, ptr noundef %4, i64 noundef %5) unnamed_addr #6 align 2 {
  %7 = alloca %"struct.OpenImageIO::v3_1_0::TypeDesc", align 8
  %8 = alloca i64, align 8
  %9 = getelementptr inbounds nuw i8, ptr %0, i64 216
  %10 = load ptr, ptr %9, align 8, !tbaa !119
  %.not.i = icmp ne ptr %10, null
  %11 = getelementptr inbounds nuw i8, ptr %0, i64 224
  %12 = load ptr, ptr %11, align 8
  %13 = icmp ne ptr %12, null
  %14 = select i1 %.not.i, i1 true, i1 %13
  br i1 %14, label %16, label %15

15:                                               ; preds = %6
  tail call void @_ZNK11OpenImageIO6v3_1_011ImageOutput8errorfmtIJEEEvPKcDpRKT_(ptr noundef nonnull align 8 dereferenceable(184) %0, ptr noundef nonnull @.str.11)
  br label %54

16:                                               ; preds = %6
  %17 = getelementptr inbounds nuw i8, ptr %0, i64 8
  %18 = getelementptr inbounds nuw i8, ptr %0, i64 68
  %19 = load i32, ptr %18, align 4, !tbaa !132
  call void @llvm.lifetime.start.p0(i64 8, ptr nonnull %7)
  store i64 %3, ptr %7, align 8
  %20 = icmp eq i64 %5, -9223372036854775808
  br i1 %20, label %21, label %_ZN11OpenImageIO6v3_1_09ImageSpec11auto_strideERlNS0_8TypeDescEi.exit

21:                                               ; preds = %16
  %22 = lshr i64 %3, 8
  %23 = lshr i64 %3, 32
  %24 = trunc nuw i64 %23 to i32
  %25 = sext i32 %19 to i64
  %narrow.i.i = tail call i32 @llvm.smax.i32(i32 %24, i32 1)
  %spec.select.i.i = zext nneg i32 %narrow.i.i to i64
  %26 = and i64 %22, 255
  %27 = call noundef i64 @_ZNK11OpenImageIO6v3_1_08TypeDesc8basesizeEv(ptr noundef nonnull align 4 dereferenceable(8) %7) #25
  %28 = mul nuw nsw i64 %26, %spec.select.i.i
  %29 = mul i64 %28, %25
  %30 = mul i64 %29, %27
  br label %_ZN11OpenImageIO6v3_1_09ImageSpec11auto_strideERlNS0_8TypeDescEi.exit

_ZN11OpenImageIO6v3_1_09ImageSpec11auto_strideERlNS0_8TypeDescEi.exit: ; preds = %16, %21
  %.0 = phi i64 [ %30, %21 ], [ %5, %16 ]
  call void @llvm.lifetime.end.p0(i64 8, ptr nonnull %7)
  %31 = getelementptr inbounds nuw i8, ptr %0, i64 232
  %32 = call noundef ptr @_ZN11OpenImageIO6v3_1_011ImageOutput18to_native_scanlineENS0_8TypeDescEPKvlRSt6vectorIhSaIhEEjii(ptr noundef nonnull align 8 dereferenceable(184) %0, i64 %3, ptr noundef %4, i64 noundef %.0, ptr noundef nonnull align 8 dereferenceable(24) %31, i32 noundef 0, i32 noundef 0, i32 noundef 0)
  %33 = icmp eq ptr %32, %4
  br i1 %33, label %34, label %38

34:                                               ; preds = %_ZN11OpenImageIO6v3_1_09ImageSpec11auto_strideERlNS0_8TypeDescEi.exit
  %35 = call noundef i64 @_ZNK11OpenImageIO6v3_1_09ImageSpec14scanline_bytesEb(ptr noundef nonnull align 8 dereferenceable(160) %17, i1 noundef zeroext false) #25
  %36 = getelementptr inbounds nuw i8, ptr %32, i64 %35
  call void @_ZNSt6vectorIhSaIhEE13_M_assign_auxIPhEEvT_S4_St20forward_iterator_tag(ptr noundef nonnull align 8 dereferenceable(24) %31, ptr noundef %32, ptr noundef %36)
  %37 = load ptr, ptr %31, align 8, !tbaa !122
  br label %38

38:                                               ; preds = %34, %_ZN11OpenImageIO6v3_1_09ImageSpec11auto_strideERlNS0_8TypeDescEi.exit
  %.015 = phi ptr [ %37, %34 ], [ %32, %_ZN11OpenImageIO6v3_1_09ImageSpec11auto_strideERlNS0_8TypeDescEi.exit ]
  %39 = load ptr, ptr %11, align 8, !tbaa !112
  %.not = icmp eq ptr %39, null
  br i1 %.not, label %45, label %40

40:                                               ; preds = %38
  %41 = getelementptr inbounds nuw i8, ptr %0, i64 20
  %42 = load i32, ptr %41, align 4, !tbaa !96
  %43 = shl i32 %42, 2
  %44 = call i32 @gzwrite(ptr noundef nonnull %39, ptr noundef %.015, i32 noundef %43)
  br label %54

45:                                               ; preds = %38
  call void @llvm.lifetime.start.p0(i64 8, ptr nonnull %8) #25
  %46 = getelementptr inbounds nuw i8, ptr %0, i64 20
  %47 = load i32, ptr %46, align 4, !tbaa !96
  %48 = sext i32 %47 to i64
  %49 = load ptr, ptr %9, align 8, !tbaa !119
  %50 = call i64 @fwrite(ptr noundef %.015, i64 noundef 4, i64 noundef %48, ptr noundef %49)
  store i64 %50, ptr %8, align 8, !tbaa !133
  %51 = load i32, ptr %46, align 4, !tbaa !96
  %52 = sext i32 %51 to i64
  %.not18 = icmp eq i64 %50, %52
  br i1 %.not18, label %.critedge, label %53

53:                                               ; preds = %45
  call void @_ZNK11OpenImageIO6v3_1_011ImageOutput8errorfmtIJmEEEvPKcDpRKT_(ptr noundef nonnull align 8 dereferenceable(184) %0, ptr noundef nonnull @.str.10, ptr noundef nonnull align 8 dereferenceable(8) %8)
  call void @llvm.lifetime.end.p0(i64 8, ptr nonnull %8) #25
  br label %54

.critedge:                                        ; preds = %45
  call void @llvm.lifetime.end.p0(i64 8, ptr nonnull %8) #25
  br label %54

54:                                               ; preds = %40, %.critedge, %53, %15
  %.014 = phi i1 [ false, %15 ], [ false, %53 ], [ true, %.critedge ], [ true, %40 ]
  ret i1 %.014
}